target datalayout = "e-m:e-p270:32:32-p271:32:32-p272:64:64-i64:64-i128:128-f80:128-n8:16:32:64-S128"
target triple = "x86_64-pc-linux-gnu"

@stderr = external global ptr, align 8
@.str.33 = private unnamed_addr constant [15 x i8] c"Failed todata\0A\00", align 1
@.str.34 = private unnamed_addr constant [16 x i8] c"Failed new ctx\0A\00", align 1
@.str.35 = private unnamed_addr constant [17 x i8] c"Failed fromdata\0A\00", align 1

; Function Attrs: nounwind uwtable
define internal void @mlkem_export_import(ptr noundef %0, ptr noundef %1, ptr noundef %2, ptr noundef %3, ptr noundef %4, ptr noundef %5) #0 {
  %7 = alloca ptr, align 8
  %8 = alloca ptr, align 8
  %9 = alloca ptr, align 8
  %10 = alloca ptr, align 8
  %11 = alloca ptr, align 8
  %12 = alloca ptr, align 8
  %13 = alloca ptr, align 8
  %14 = alloca ptr, align 8
  %15 = alloca ptr, align 8
  %16 = alloca ptr, align 8
  store ptr %0, ptr %7, align 8, !tbaa !23
  store ptr %1, ptr %8, align 8, !tbaa !21
  store ptr %2, ptr %9, align 8, !tbaa !15
  store ptr %3, ptr %10, align 8, !tbaa !15
  store ptr %4, ptr %11, align 8, !tbaa !15
  store ptr %5, ptr %12, align 8, !tbaa !15
  call void @llvm.lifetime.start.p0(i64 8, ptr %13) #7
  %17 = load ptr, ptr %9, align 8, !tbaa !15
  store ptr %17, ptr %13, align 8, !tbaa !27
  call void @llvm.lifetime.start.p0(i64 8, ptr %14) #7
  store ptr null, ptr %14, align 8, !tbaa !27
  call void @llvm.lifetime.start.p0(i64 8, ptr %15) #7
  store ptr null, ptr %15, align 8, !tbaa !29
  call void @llvm.lifetime.start.p0(i64 8, ptr %16) #7
  store ptr null, ptr %16, align 8, !tbaa !35
  %18 = load ptr, ptr %13, align 8, !tbaa !27
  %19 = call i32 @EVP_PKEY_todata(ptr noundef %18, i32 noundef 135, ptr noundef %16)
  %20 = icmp ne i32 %19, 0
  br i1 %20, label %24, label %21

21:                                               ; preds = %6
  %22 = load ptr, ptr @stderr, align 8, !tbaa !33
  %23 = call i32 (ptr, ptr, ...) @fprintf(ptr noundef %22, ptr noundef @.str.33) #7
  br label %41

24:                                               ; preds = %6
  %25 = load ptr, ptr %13, align 8, !tbaa !27
  %26 = call ptr @EVP_PKEY_CTX_new_from_pkey(ptr noundef null, ptr noundef %25, ptr noundef null)
  store ptr %26, ptr %15, align 8, !tbaa !29
  %27 = load ptr, ptr %15, align 8, !tbaa !29
  %28 = icmp eq ptr %27, null
  br i1 %28, label %29, label %32

29:                                               ; preds = %24
  %30 = load ptr, ptr @stderr, align 8, !tbaa !33
  %31 = call i32 (ptr, ptr, ...) @fprintf(ptr noundef %30, ptr noundef @.str.34) #7
  br label %41

32:                                               ; preds = %24
  %33 = load ptr, ptr %15, align 8, !tbaa !29
  %34 = load ptr, ptr %16, align 8, !tbaa !35
  %35 = call i32 @EVP_PKEY_fromdata(ptr noundef %33, ptr noundef %14, i32 noundef 135, ptr noundef %34)
  %36 = icmp ne i32 %35, 0
  br i1 %36, label %40, label %37

37:                                               ; preds = %32
  %38 = load ptr, ptr @stderr, align 8, !tbaa !33
  %39 = call i32 (ptr, ptr, ...) @fprintf(ptr noundef %38, ptr noundef @.str.35) #7
  br label %41

40:                                               ; preds = %32
  br label %41

41:                                               ; preds = %40, %37, %29, %21
  %42 = load ptr, ptr %15, align 8, !tbaa !29
  call void @EVP_PKEY_CTX_free(ptr noundef %42)
  %43 = load ptr, ptr %14, align 8, !tbaa !27
  call void @EVP_PKEY_free(ptr noundef %43)
  %44 = load ptr, ptr %16, align 8, !tbaa !35
  call void @OSSL_PARAM_free(ptr noundef %44)
  call void @llvm.lifetime.end.p0(i64 8, ptr %16) #7
  call void @llvm.lifetime.end.p0(i64 8, ptr %15) #7
  call void @llvm.lifetime.end.p0(i64 8, ptr %14) #7
  call void @llvm.lifetime.end.p0(i64 8, ptr %13) #7
  ret void
}