; Function Attrs: nounwind uwtable
define internal void @mlkem_export_import(ptr readnone captures(none) %0, ptr readnone captures(none) %1, ptr noundef %2, ptr readnone captures(none) %3, ptr readnone captures(none) %4, ptr readnone captures(none) %5) #1 {
  %7 = alloca ptr, align 8
  %8 = alloca ptr, align 8
  call void @llvm.lifetime.start.p0(i64 8, ptr nonnull %7) #6
  store ptr null, ptr %7, align 8, !tbaa !18
  call void @llvm.lifetime.start.p0(i64 8, ptr nonnull %8) #6
  store ptr null, ptr %8, align 8, !tbaa !20
  %9 = call i32 @EVP_PKEY_todata(ptr noundef %2, i32 noundef 135, ptr noundef nonnull %8) #6
  %.not = icmp eq i32 %9, 0
  br i1 %.not, label %10, label %13

10:                                               ; preds = %6
  %11 = load ptr, ptr @stderr, align 8, !tbaa !16
  %12 = call i64 @fwrite(ptr nonnull @.str.33, i64 14, i64 1, ptr %11) #7
  br label %25

13:                                               ; preds = %6
  %14 = call ptr @EVP_PKEY_CTX_new_from_pkey(ptr noundef null, ptr noundef %2, ptr noundef null) #6
  %15 = icmp eq ptr %14, null
  br i1 %15, label %16, label %19

16:                                               ; preds = %13
  %17 = load ptr, ptr @stderr, align 8, !tbaa !16
  %18 = call i64 @fwrite(ptr nonnull @.str.34, i64 15, i64 1, ptr %17) #7
  br label %25

19:                                               ; preds = %13
  %20 = load ptr, ptr %8, align 8, !tbaa !20
  %21 = call i32 @EVP_PKEY_fromdata(ptr noundef nonnull %14, ptr noundef nonnull %7, i32 noundef 135, ptr noundef %20) #6
  %.not7 = icmp eq i32 %21, 0
  br i1 %.not7, label %22, label %25

22:                                               ; preds = %19
  %23 = load ptr, ptr @stderr, align 8, !tbaa !16
  %24 = call i64 @fwrite(ptr nonnull @.str.35, i64 16, i64 1, ptr %23) #7
  br label %25

25:                                               ; preds = %19, %22, %16, %10
  %.0 = phi ptr [ null, %16 ], [ %14, %19 ], [ %14, %22 ], [ null, %10 ]
  call void @EVP_PKEY_CTX_free(ptr noundef %.0) #6
  %26 = load ptr, ptr %7, align 8, !tbaa !18
  call void @EVP_PKEY_free(ptr noundef %26) #6
  %27 = load ptr, ptr %8, align 8, !tbaa !20
  call void @OSSL_PARAM_free(ptr noundef %27) #6
  call void @llvm.lifetime.end.p0(i64 8, ptr nonnull %8) #6
  call void @llvm.lifetime.end.p0(i64 8, ptr nonnull %7) #6
  ret void
}